; Function Attrs: nounwind uwtable
define internal fastcc ptr @cp_tok2str(ptr noundef readonly captures(none) %0, i32 noundef range(i32 1, 0) %1) unnamed_addr #2 {
  %3 = icmp sgt i32 %1, 255
  br i1 %3, label %4, label %9

4:                                                ; preds = %2
  %5 = add nsw i32 %1, -256
  %6 = zext nneg i32 %5 to i64
  %7 = getelementptr inbounds nuw [14 x ptr], ptr @ctoknames, i64 0, i64 %6
  %8 = load ptr, ptr %7, align 8, !tbaa !111
  br label %20

9:                                                ; preds = %2
  %10 = sext i32 %1 to i64
  %11 = getelementptr inbounds i8, ptr getelementptr inbounds nuw (i8, ptr @lj_char_bits, i64 1), i64 %10
  %12 = load i8, ptr %11, align 1, !tbaa !4
  %13 = and i8 %12, 1
  %.not = icmp eq i8 %13, 0
  %14 = getelementptr inbounds nuw i8, ptr %0, i64 72
  %15 = load ptr, ptr %14, align 8, !tbaa !38
  br i1 %.not, label %16, label %18

16:                                               ; preds = %9
  %17 = tail call ptr (ptr, ptr, ...) @lj_strfmt_pushf(ptr noundef %15, ptr noundef nonnull @.str.1, i32 noundef %1) #15
  br label %20

18:                                               ; preds = %9
  %19 = tail call ptr (ptr, ptr, ...) @lj_strfmt_pushf(ptr noundef %15, ptr noundef nonnull @.str.2, i32 noundef %1) #15
  br label %20

20:                                               ; preds = %18, %16, %4
  %.0 = phi ptr [ %8, %4 ], [ %19, %18 ], [ %17, %16 ]
  ret ptr %.0
}